target datalayout = "e-m:e-p270:32:32-p271:32:32-p272:64:64-i64:64-i128:128-f80:128-n8:16:32:64-S128"
target triple = "x86_64-pc-linux-gnu"

%"class.std::__cxx11::basic_string" = type { %"struct.std::__cxx11::basic_string<char>::_Alloc_hider", i64, %union.anon }
%"struct.std::__cxx11::basic_string<char>::_Alloc_hider" = type { ptr }
%union.anon = type { i64, [8 x i8] }
%"struct.Luau::TypeMismatch" = type { ptr, ptr, i32, %"class.std::__cxx11::basic_string", %"class.std::shared_ptr" }
%"class.std::shared_ptr" = type { %"class.std::__shared_ptr" }
%"class.std::__shared_ptr" = type { ptr, %"class.std::__shared_count" }
%"class.std::__shared_count" = type { ptr }
%"struct.Luau::TypeError" = type { %"struct.Luau::Location", %"class.std::__cxx11::basic_string", %"class.Luau::Variant" }
%"struct.Luau::Location" = type { %"struct.Luau::Position", %"struct.Luau::Position" }
%"struct.Luau::Position" = type { i32, i32 }
%"class.Luau::Variant" = type { i32, [4 x i8], [104 x i8] }
%class.anon.264 = type { ptr, ptr }
%class.anon.265 = type { ptr, ptr }

; Function Attrs: mustprogress nounwind uwtable
define linkonce_odr dso_local noundef ptr @_ZNKSt12__shared_ptrIN4Luau9TypeErrorELN9__gnu_cxx12_Lock_policyE2EE3getEv(ptr noundef nonnull align 8 dereferenceable(16) %0) #2 comdat align 2 {
  %2 = alloca ptr, align 8
  store ptr %0, ptr %2, align 8, !tbaa !84
  %3 = load ptr, ptr %2, align 8
  %4 = getelementptr inbounds nuw %"class.std::__shared_ptr", ptr %3, i32 0, i32 0
  %5 = load ptr, ptr %4, align 8, !tbaa !86
  ret ptr %5
}

; Function Attrs: mustprogress nounwind uwtable
define linkonce_odr dso_local noundef ptr @_ZNKSt19__shared_ptr_accessIN4Luau9TypeErrorELN9__gnu_cxx12_Lock_policyE2ELb0ELb0EE6_M_getEv(ptr noundef nonnull align 1 dereferenceable(1) %0) #2 comdat align 2 {
  %2 = alloca ptr, align 8
  store ptr %0, ptr %2, align 8, !tbaa !87
  %3 = load ptr, ptr %2, align 8
  %4 = call noundef ptr @_ZNKSt12__shared_ptrIN4Luau9TypeErrorELN9__gnu_cxx12_Lock_policyE2EE3getEv(ptr noundef nonnull align 8 dereferenceable(16) %3) #5
  ret ptr %4
}

; Function Attrs: mustprogress uwtable
define linkonce_odr dso_local void @_ZN4Luau5visitIRZNS_9copyErrorINS_12TypeMismatchEEEvRT_RNS_9TypeArenaERNS_10CloneStateEEUlOS3_E0_JS2_NS_13UnknownSymbolENS_15UnknownPropertyENS_9NotATableENS_17CannotExtendTableENS_24OnlyTablesCanHaveMethodsENS_23DuplicateTypeDefinitionENS_13CountMismatchENS_23FunctionDoesNotTakeSelfENS_20FunctionRequiresSelfENS_17OccursCheckFailedENS_14UnknownRequireENS_30IncorrectGenericParameterCountENS_11SyntaxErrorENS_14CodeTooComplexENS_21UnificationTooComplexENS_27UnknownPropButFoundLikePropENS_12GenericErrorENS_13InternalErrorENS_32ConstraintSolvingIncompleteErrorENS_21CannotCallNonFunctionENS_16ExtraInformationENS_17DeprecatedApiUsedENS_25ModuleHasCyclicDependencyENS_14IllegalRequireENS_29FunctionExitsWithoutReturningENS_25DuplicateGenericParameterENS_19CannotAssignToNeverENS_26CannotInferBinaryOperationENS_17MissingPropertiesENS_27SwappedGenericTypeParameterENS_19OptionalValueAccessENS_20MissingUnionPropertyENS_17TypesAreUnrelatedENS_23NormalizationTooComplexENS_16TypePackMismatchENS_36DynamicPropertyLookupOnClassesUnsafeENS_23UninhabitedTypeFunctionENS_27UninhabitedTypePackFunctionENS_17WhereClauseNeededENS_21PackWhereClauseNeededENS_24CheckedFunctionCallErrorENS_32NonStrictFunctionDefinitionErrorENS_23PropertyAccessViolationENS_28CheckedFunctionIncorrectArgsENS_25UnexpectedTypeInSubtypingENS_29UnexpectedTypePackInSubtypingENS_37ExplicitFunctionAnnotationRecommendedENS_28UserDefinedTypeFunctionErrorEEEEDaS9_RNS_7VariantIJDpT0_EEE(ptr noundef nonnull align 8 dereferenceable(16) %0, ptr noundef nonnull align 8 dereferenceable(112) %1) #3 comdat {
  %3 = alloca ptr, align 8
  %4 = alloca ptr, align 8
  store ptr %0, ptr %3, align 8, !tbaa !233
  store ptr %1, ptr %4, align 8, !tbaa !220
  %5 = load ptr, ptr %4, align 8, !tbaa !220
  %6 = getelementptr inbounds nuw %"class.Luau::Variant", ptr %5, i32 0, i32 0
  %7 = load i32, ptr %6, align 8, !tbaa !222
  %8 = sext i32 %7 to i64
  %9 = getelementptr inbounds [49 x ptr], ptr @_ZZN4Luau5visitIRZNS_9copyErrorINS_12TypeMismatchEEEvRT_RNS_9TypeArenaERNS_10CloneStateEEUlOS3_E0_JS2_NS_13UnknownSymbolENS_15UnknownPropertyENS_9NotATableENS_17CannotExtendTableENS_24OnlyTablesCanHaveMethodsENS_23DuplicateTypeDefinitionENS_13CountMismatchENS_23FunctionDoesNotTakeSelfENS_20FunctionRequiresSelfENS_17OccursCheckFailedENS_14UnknownRequireENS_30IncorrectGenericParameterCountENS_11SyntaxErrorENS_14CodeTooComplexENS_21UnificationTooComplexENS_27UnknownPropButFoundLikePropENS_12GenericErrorENS_13InternalErrorENS_32ConstraintSolvingIncompleteErrorENS_21CannotCallNonFunctionENS_16ExtraInformationENS_17DeprecatedApiUsedENS_25ModuleHasCyclicDependencyENS_14IllegalRequireENS_29FunctionExitsWithoutReturningENS_25DuplicateGenericParameterENS_19CannotAssignToNeverENS_26CannotInferBinaryOperationENS_17MissingPropertiesENS_27SwappedGenericTypeParameterENS_19OptionalValueAccessENS_20MissingUnionPropertyENS_17TypesAreUnrelatedENS_23NormalizationTooComplexENS_16TypePackMismatchENS_36DynamicPropertyLookupOnClassesUnsafeENS_23UninhabitedTypeFunctionENS_27UninhabitedTypePackFunctionENS_17WhereClauseNeededENS_21PackWhereClauseNeededENS_24CheckedFunctionCallErrorENS_32NonStrictFunctionDefinitionErrorENS_23PropertyAccessViolationENS_28CheckedFunctionIncorrectArgsENS_25UnexpectedTypeInSubtypingENS_29UnexpectedTypePackInSubtypingENS_37ExplicitFunctionAnnotationRecommendedENS_28UserDefinedTypeFunctionErrorEEEEDaS9_RNS_7VariantIJDpT0_EEEE10tableVisit, i64 0, i64 %8
  %10 = load ptr, ptr %9, align 8, !tbaa !233
  %11 = load ptr, ptr %3, align 8, !tbaa !233
  %12 = load ptr, ptr %4, align 8, !tbaa !220
  %13 = getelementptr inbounds nuw %"class.Luau::Variant", ptr %12, i32 0, i32 2
  call void %10(ptr noundef nonnull align 8 dereferenceable(16) %11, ptr noundef %13)
  ret void
}

; Function Attrs: mustprogress nounwind uwtable
define linkonce_odr dso_local noundef ptr @_ZNKSt19__shared_ptr_accessIN4Luau9TypeErrorELN9__gnu_cxx12_Lock_policyE2ELb0ELb0EEptEv(ptr noundef nonnull align 1 dereferenceable(1) %0) #2 comdat align 2 {
  %2 = alloca ptr, align 8
  store ptr %0, ptr %2, align 8, !tbaa !87
  %3 = load ptr, ptr %2, align 8
  %4 = call noundef ptr @_ZNKSt19__shared_ptr_accessIN4Luau9TypeErrorELN9__gnu_cxx12_Lock_policyE2ELb0ELb0EE6_M_getEv(ptr noundef nonnull align 1 dereferenceable(1) %3) #5
  ret ptr %4
}

; Function Attrs: mustprogress nounwind uwtable
define linkonce_odr dso_local noundef zeroext i1 @_ZNKSt12__shared_ptrIN4Luau9TypeErrorELN9__gnu_cxx12_Lock_policyE2EEcvbEv(ptr noundef nonnull align 8 dereferenceable(16) %0) #2 comdat align 2 {
  %2 = alloca ptr, align 8
  store ptr %0, ptr %2, align 8, !tbaa !84
  %3 = load ptr, ptr %2, align 8
  %4 = getelementptr inbounds nuw %"class.std::__shared_ptr", ptr %3, i32 0, i32 0
  %5 = load ptr, ptr %4, align 8, !tbaa !86
  %6 = icmp ne ptr %5, null
  ret i1 %6
}

; Function Attrs: inlinehint mustprogress uwtable
define linkonce_odr dso_local noundef ptr @_ZZN4Luau9copyErrorINS_12TypeMismatchEEEvRT_RNS_9TypeArenaERNS_10CloneStateEENKUlOS2_E_clIRPKNS_4TypeEEEDaS8_(ptr noundef nonnull align 8 dereferenceable(16) %0, ptr noundef nonnull align 8 dereferenceable(8) %1) #6 comdat align 2 {
  %3 = alloca ptr, align 8
  %4 = alloca ptr, align 8
  store ptr %0, ptr %3, align 8, !tbaa !233
  store ptr %1, ptr %4, align 8, !tbaa !737
  %5 = load ptr, ptr %3, align 8
  %6 = load ptr, ptr %4, align 8, !tbaa !737
  %7 = load ptr, ptr %6, align 8, !tbaa !62
  %8 = getelementptr inbounds nuw %class.anon.264, ptr %5, i32 0, i32 0
  %9 = load ptr, ptr %8, align 8, !tbaa !902
  %10 = getelementptr inbounds nuw %class.anon.264, ptr %5, i32 0, i32 1
  %11 = load ptr, ptr %10, align 8, !tbaa !904
  %12 = call noundef ptr @_ZN4Luau5cloneEPKNS_4TypeERNS_9TypeArenaERNS_10CloneStateE(ptr noundef %7, ptr noundef nonnull align 8 dereferenceable(88) %9, ptr noundef nonnull align 8 dereferenceable(120) %11)
  ret ptr %12
}

; Function Attrs: mustprogress uwtable
define linkonce_odr dso_local void @_ZN4Luau9copyErrorINS_12TypeMismatchEEEvRT_RNS_9TypeArenaERNS_10CloneStateE(ptr noundef nonnull align 8 dereferenceable(72) %0, ptr noundef nonnull align 8 dereferenceable(88) %1, ptr noundef nonnull align 8 dereferenceable(120) %2) #3 comdat {
  %4 = alloca ptr, align 8
  %5 = alloca ptr, align 8
  %6 = alloca ptr, align 8
  %7 = alloca %class.anon.264, align 8
  %8 = alloca %class.anon.265, align 8
  store ptr %0, ptr %4, align 8, !tbaa !60
  store ptr %1, ptr %5, align 8, !tbaa !378
  store ptr %2, ptr %6, align 8, !tbaa !383
  call void @llvm.lifetime.start.p0(i64 16, ptr %7) #5
  %9 = getelementptr inbounds nuw %class.anon.264, ptr %7, i32 0, i32 0
  %10 = load ptr, ptr %5, align 8, !tbaa !378
  store ptr %10, ptr %9, align 8, !tbaa !378
  %11 = getelementptr inbounds nuw %class.anon.264, ptr %7, i32 0, i32 1
  %12 = load ptr, ptr %6, align 8, !tbaa !383
  store ptr %12, ptr %11, align 8, !tbaa !383
  call void @llvm.lifetime.start.p0(i64 16, ptr %8) #5
  %13 = getelementptr inbounds nuw %class.anon.265, ptr %8, i32 0, i32 0
  %14 = load ptr, ptr %5, align 8, !tbaa !378
  store ptr %14, ptr %13, align 8, !tbaa !378
  %15 = getelementptr inbounds nuw %class.anon.265, ptr %8, i32 0, i32 1
  %16 = load ptr, ptr %6, align 8, !tbaa !383
  store ptr %16, ptr %15, align 8, !tbaa !383
  %17 = load ptr, ptr %4, align 8, !tbaa !60
  %18 = getelementptr inbounds nuw %"struct.Luau::TypeMismatch", ptr %17, i32 0, i32 0
  %19 = call noundef ptr @_ZZN4Luau9copyErrorINS_12TypeMismatchEEEvRT_RNS_9TypeArenaERNS_10CloneStateEENKUlOS2_E_clIRPKNS_4TypeEEEDaS8_(ptr noundef nonnull align 8 dereferenceable(16) %7, ptr noundef nonnull align 8 dereferenceable(8) %18)
  %20 = load ptr, ptr %4, align 8, !tbaa !60
  %21 = getelementptr inbounds nuw %"struct.Luau::TypeMismatch", ptr %20, i32 0, i32 0
  store ptr %19, ptr %21, align 8, !tbaa !64
  %22 = load ptr, ptr %4, align 8, !tbaa !60
  %23 = getelementptr inbounds nuw %"struct.Luau::TypeMismatch", ptr %22, i32 0, i32 1
  %24 = call noundef ptr @_ZZN4Luau9copyErrorINS_12TypeMismatchEEEvRT_RNS_9TypeArenaERNS_10CloneStateEENKUlOS2_E_clIRPKNS_4TypeEEEDaS8_(ptr noundef nonnull align 8 dereferenceable(16) %7, ptr noundef nonnull align 8 dereferenceable(8) %23)
  %25 = load ptr, ptr %4, align 8, !tbaa !60
  %26 = getelementptr inbounds nuw %"struct.Luau::TypeMismatch", ptr %25, i32 0, i32 1
  store ptr %24, ptr %26, align 8, !tbaa !72
  %27 = load ptr, ptr %4, align 8, !tbaa !60
  %28 = getelementptr inbounds nuw %"struct.Luau::TypeMismatch", ptr %27, i32 0, i32 4
  %29 = call noundef zeroext i1 @_ZNKSt12__shared_ptrIN4Luau9TypeErrorELN9__gnu_cxx12_Lock_policyE2EEcvbEv(ptr noundef nonnull align 8 dereferenceable(16) %28) #5
  br i1 %29, label %30, label %35

30:                                               ; preds = %3
  %31 = load ptr, ptr %4, align 8, !tbaa !60
  %32 = getelementptr inbounds nuw %"struct.Luau::TypeMismatch", ptr %31, i32 0, i32 4
  %33 = call noundef ptr @_ZNKSt19__shared_ptr_accessIN4Luau9TypeErrorELN9__gnu_cxx12_Lock_policyE2ELb0ELb0EEptEv(ptr noundef nonnull align 1 dereferenceable(1) %32) #5
  %34 = getelementptr inbounds nuw %"struct.Luau::TypeError", ptr %33, i32 0, i32 2
  call void @_ZN4Luau5visitIRZNS_9copyErrorINS_12TypeMismatchEEEvRT_RNS_9TypeArenaERNS_10CloneStateEEUlOS3_E0_JS2_NS_13UnknownSymbolENS_15UnknownPropertyENS_9NotATableENS_17CannotExtendTableENS_24OnlyTablesCanHaveMethodsENS_23DuplicateTypeDefinitionENS_13CountMismatchENS_23FunctionDoesNotTakeSelfENS_20FunctionRequiresSelfENS_17OccursCheckFailedENS_14UnknownRequireENS_30IncorrectGenericParameterCountENS_11SyntaxErrorENS_14CodeTooComplexENS_21UnificationTooComplexENS_27UnknownPropButFoundLikePropENS_12GenericErrorENS_13InternalErrorENS_32ConstraintSolvingIncompleteErrorENS_21CannotCallNonFunctionENS_16ExtraInformationENS_17DeprecatedApiUsedENS_25ModuleHasCyclicDependencyENS_14IllegalRequireENS_29FunctionExitsWithoutReturningENS_25DuplicateGenericParameterENS_19CannotAssignToNeverENS_26CannotInferBinaryOperationENS_17MissingPropertiesENS_27SwappedGenericTypeParameterENS_19OptionalValueAccessENS_20MissingUnionPropertyENS_17TypesAreUnrelatedENS_23NormalizationTooComplexENS_16TypePackMismatchENS_36DynamicPropertyLookupOnClassesUnsafeENS_23UninhabitedTypeFunctionENS_27UninhabitedTypePackFunctionENS_17WhereClauseNeededENS_21PackWhereClauseNeededENS_24CheckedFunctionCallErrorENS_32NonStrictFunctionDefinitionErrorENS_23PropertyAccessViolationENS_28CheckedFunctionIncorrectArgsENS_25UnexpectedTypeInSubtypingENS_29UnexpectedTypePackInSubtypingENS_37ExplicitFunctionAnnotationRecommendedENS_28UserDefinedTypeFunctionErrorEEEEDaS9_RNS_7VariantIJDpT0_EEE(ptr noundef nonnull align 8 dereferenceable(16) %8, ptr noundef nonnull align 8 dereferenceable(112) %34)
  br label %35

35:                                               ; preds = %30, %3
  call void @llvm.lifetime.end.p0(i64 16, ptr %8) #5
  call void @llvm.lifetime.end.p0(i64 16, ptr %7) #5
  ret void
}

; Function Attrs: inlinehint mustprogress uwtable
define linkonce_odr dso_local void @_ZZN4Luau9copyErrorINS_12TypeMismatchEEEvRT_RNS_9TypeArenaERNS_10CloneStateEENKUlOS2_E0_clIRS1_EEDaS8_(ptr noundef nonnull align 8 dereferenceable(16) %0, ptr noundef nonnull align 8 dereferenceable(72) %1) #6 comdat align 2 {
  %3 = alloca ptr, align 8
  %4 = alloca ptr, align 8
  store ptr %0, ptr %3, align 8, !tbaa !233
  store ptr %1, ptr %4, align 8, !tbaa !60
  %5 = load ptr, ptr %3, align 8
  %6 = load ptr, ptr %4, align 8, !tbaa !60
  %7 = getelementptr inbounds nuw %class.anon.265, ptr %5, i32 0, i32 0
  %8 = load ptr, ptr %7, align 8, !tbaa !905
  %9 = getelementptr inbounds nuw %class.anon.265, ptr %5, i32 0, i32 1
  %10 = load ptr, ptr %9, align 8, !tbaa !907
  call void @_ZN4Luau9copyErrorINS_12TypeMismatchEEEvRT_RNS_9TypeArenaERNS_10CloneStateE(ptr noundef nonnull align 8 dereferenceable(72) %6, ptr noundef nonnull align 8 dereferenceable(88) %8, ptr noundef nonnull align 8 dereferenceable(120) %10)
  ret void
}

; Function Attrs: mustprogress uwtable
define internal void @_ZN4LuauL8fnVisitVIRZNS_9copyErrorINS_12TypeMismatchEEEvRT_RNS_9TypeArenaERNS_10CloneStateEEUlOS3_E0_S2_EEvS4_PNSt11conditionalIXsr3stdE10is_const_vIT0_EEKvvE4typeE(ptr noundef nonnull align 8 dereferenceable(16) %0, ptr noundef %1) #3 {
  %3 = alloca ptr, align 8
  %4 = alloca ptr, align 8
  store ptr %0, ptr %3, align 8, !tbaa !233
  store ptr %1, ptr %4, align 8, !tbaa !233
  %5 = load ptr, ptr %3, align 8, !tbaa !233
  %6 = load ptr, ptr %4, align 8, !tbaa !233
  call void @_ZZN4Luau9copyErrorINS_12TypeMismatchEEEvRT_RNS_9TypeArenaERNS_10CloneStateEENKUlOS2_E0_clIRS1_EEDaS8_(ptr noundef nonnull align 8 dereferenceable(16) %5, ptr noundef nonnull align 8 dereferenceable(72) %6)
  ret void
}