; Function Attrs: mustprogress uwtable
define internal void @_ZN4LuauL8fnVisitVIRZNS_9copyErrorINS_12TypeMismatchEEEvRT_RNS_9TypeArenaERNS_10CloneStateEEUlOS3_E0_S2_EEvS4_PNSt11conditionalIXsr3stdE10is_const_vIT0_EEKvvE4typeE(ptr noundef nonnull readonly align 8 captures(none) dereferenceable(16) %0, ptr noundef captures(none) %1) #5 {
  %3 = alloca %class.anon.265, align 8
  %4 = load ptr, ptr %0, align 8, !tbaa !1032
  %5 = getelementptr inbounds nuw i8, ptr %0, i64 8
  %6 = load ptr, ptr %5, align 8, !tbaa !1034
  call void @llvm.lifetime.start.p0(i64 16, ptr nonnull %3) #32
  store ptr %4, ptr %3, align 8, !tbaa !253
  %7 = getelementptr inbounds nuw i8, ptr %3, i64 8
  store ptr %6, ptr %7, align 8, !tbaa !255
  %8 = load ptr, ptr %1, align 8, !tbaa !182
  %9 = tail call noundef ptr @_ZN4Luau5cloneEPKNS_4TypeERNS_9TypeArenaERNS_10CloneStateE(ptr noundef %8, ptr noundef nonnull align 8 dereferenceable(88) %4, ptr noundef nonnull align 8 dereferenceable(120) %6)
  store ptr %9, ptr %1, align 8, !tbaa !34
  %10 = getelementptr inbounds nuw i8, ptr %1, i64 8
  %11 = load ptr, ptr %10, align 8, !tbaa !182
  %12 = tail call noundef ptr @_ZN4Luau5cloneEPKNS_4TypeERNS_9TypeArenaERNS_10CloneStateE(ptr noundef %11, ptr noundef nonnull align 8 dereferenceable(88) %4, ptr noundef nonnull align 8 dereferenceable(120) %6)
  store ptr %12, ptr %10, align 8, !tbaa !43
  %13 = getelementptr inbounds nuw i8, ptr %1, i64 56
  %14 = load ptr, ptr %13, align 8, !tbaa !55
  %.not.i.i = icmp eq ptr %14, null
  br i1 %.not.i.i, label %_ZZN4Luau9copyErrorINS_12TypeMismatchEEEvRT_RNS_9TypeArenaERNS_10CloneStateEENKUlOS2_E0_clIRS1_EEDaS8_.exit, label %15

15:                                               ; preds = %2
  %16 = getelementptr inbounds nuw i8, ptr %14, i64 48
  %17 = load i32, ptr %16, align 8, !tbaa !62
  %18 = sext i32 %17 to i64
  %19 = getelementptr inbounds [49 x ptr], ptr @_ZZN4Luau5visitIRZNS_9copyErrorINS_12TypeMismatchEEEvRT_RNS_9TypeArenaERNS_10CloneStateEEUlOS3_E0_JS2_NS_13UnknownSymbolENS_15UnknownPropertyENS_9NotATableENS_17CannotExtendTableENS_24OnlyTablesCanHaveMethodsENS_23DuplicateTypeDefinitionENS_13CountMismatchENS_23FunctionDoesNotTakeSelfENS_20FunctionRequiresSelfENS_17OccursCheckFailedENS_14UnknownRequireENS_30IncorrectGenericParameterCountENS_11SyntaxErrorENS_14CodeTooComplexENS_21UnificationTooComplexENS_27UnknownPropButFoundLikePropENS_12GenericErrorENS_13InternalErrorENS_32ConstraintSolvingIncompleteErrorENS_21CannotCallNonFunctionENS_16ExtraInformationENS_17DeprecatedApiUsedENS_25ModuleHasCyclicDependencyENS_14IllegalRequireENS_29FunctionExitsWithoutReturningENS_25DuplicateGenericParameterENS_19CannotAssignToNeverENS_26CannotInferBinaryOperationENS_17MissingPropertiesENS_27SwappedGenericTypeParameterENS_19OptionalValueAccessENS_20MissingUnionPropertyENS_17TypesAreUnrelatedENS_23NormalizationTooComplexENS_16TypePackMismatchENS_36DynamicPropertyLookupOnClassesUnsafeENS_23UninhabitedTypeFunctionENS_27UninhabitedTypePackFunctionENS_17WhereClauseNeededENS_21PackWhereClauseNeededENS_24CheckedFunctionCallErrorENS_32NonStrictFunctionDefinitionErrorENS_23PropertyAccessViolationENS_28CheckedFunctionIncorrectArgsENS_25UnexpectedTypeInSubtypingENS_29UnexpectedTypePackInSubtypingENS_37ExplicitFunctionAnnotationRecommendedENS_28UserDefinedTypeFunctionErrorEEEEDaS9_RNS_7VariantIJDpT0_EEEE10tableVisit, i64 0, i64 %18
  %20 = load ptr, ptr %19, align 8, !tbaa !64
  %21 = getelementptr inbounds nuw i8, ptr %14, i64 56
  call void %20(ptr noundef nonnull align 8 dereferenceable(16) %3, ptr noundef nonnull %21)
  br label %_ZZN4Luau9copyErrorINS_12TypeMismatchEEEvRT_RNS_9TypeArenaERNS_10CloneStateEENKUlOS2_E0_clIRS1_EEDaS8_.exit

_ZZN4Luau9copyErrorINS_12TypeMismatchEEEvRT_RNS_9TypeArenaERNS_10CloneStateEENKUlOS2_E0_clIRS1_EEDaS8_.exit: ; preds = %2, %15
  call void @llvm.lifetime.end.p0(i64 16, ptr nonnull %3) #32
  ret void
}